; Function Attrs: mustprogress nofree norecurse nosync nounwind willreturn memory(read, inaccessiblemem: none) uwtable
define hidden noundef nonnull align 8 dereferenceable(8) ptr @_ZNK7datalog8rule_set19get_predicate_rulesEP9func_decl(ptr noundef nonnull readonly align 8 captures(ret: address, provenance) dereferenceable(248) %0, ptr noundef readonly captures(address) %1) local_unnamed_addr #9 align 2 {
  %3 = getelementptr inbounds nuw i8, ptr %0, i64 32
  %4 = getelementptr inbounds nuw i8, ptr %1, i64 12
  %5 = load i32, ptr %4, align 4, !tbaa !55
  %6 = getelementptr inbounds nuw i8, ptr %0, i64 40
  %7 = load i32, ptr %6, align 8, !tbaa !73
  %8 = add i32 %7, -1
  %9 = and i32 %8, %5
  %10 = load ptr, ptr %3, align 8, !tbaa !70
  %11 = zext i32 %9 to i64
  %12 = getelementptr inbounds nuw %"class.obj_map<func_decl, ptr_vector<datalog::rule> *>::obj_map_entry", ptr %10, i64 %11
  %13 = zext i32 %7 to i64
  %14 = getelementptr inbounds nuw %"class.obj_map<func_decl, ptr_vector<datalog::rule> *>::obj_map_entry", ptr %10, i64 %13
  %.not35.i.i = icmp eq i32 %9, %7
  br i1 %.not35.i.i, label %.preheader.i.i, label %.lr.ph.i.i

.preheader.i.i:                                   ; preds = %21, %2
  %.not2737.i.i = icmp eq i32 %9, 0
  br i1 %.not2737.i.i, label %.loopexit, label %.lr.ph39.i.i

.lr.ph.i.i:                                       ; preds = %2, %21
  %.036.i.i = phi ptr [ %22, %21 ], [ %12, %2 ]
  %15 = load ptr, ptr %.036.i.i, align 8, !tbaa !74
  %magicptr30.i.i = ptrtoint ptr %15 to i64
  switch i64 %magicptr30.i.i, label %16 [
    i64 0, label %.loopexit
    i64 1, label %21
  ]

16:                                               ; preds = %.lr.ph.i.i
  %17 = getelementptr inbounds nuw i8, ptr %15, i64 12
  %18 = load i32, ptr %17, align 4, !tbaa !55
  %19 = icmp eq i32 %18, %5
  %20 = icmp eq ptr %15, %1
  %or.cond.i.i = and i1 %20, %19
  br i1 %or.cond.i.i, label %_ZNK7obj_mapI9func_declP10ptr_vectorIN7datalog4ruleEEE9find_coreEPS0_.exit, label %21

21:                                               ; preds = %16, %.lr.ph.i.i
  %22 = getelementptr inbounds nuw i8, ptr %.036.i.i, i64 16
  %.not.i.i = icmp eq ptr %22, %14
  br i1 %.not.i.i, label %.preheader.i.i, label %.lr.ph.i.i, !llvm.loop !345

.lr.ph39.i.i:                                     ; preds = %.preheader.i.i, %29
  %.138.i.i = phi ptr [ %30, %29 ], [ %10, %.preheader.i.i ]
  %23 = load ptr, ptr %.138.i.i, align 8, !tbaa !74
  %magicptr32.i.i = ptrtoint ptr %23 to i64
  switch i64 %magicptr32.i.i, label %24 [
    i64 0, label %.loopexit
    i64 1, label %29
  ]

24:                                               ; preds = %.lr.ph39.i.i
  %25 = getelementptr inbounds nuw i8, ptr %23, i64 12
  %26 = load i32, ptr %25, align 4, !tbaa !55
  %27 = icmp eq i32 %26, %5
  %28 = icmp eq ptr %23, %1
  %or.cond31.i.i = and i1 %28, %27
  br i1 %or.cond31.i.i, label %_ZNK7obj_mapI9func_declP10ptr_vectorIN7datalog4ruleEEE9find_coreEPS0_.exit, label %29

29:                                               ; preds = %24, %.lr.ph39.i.i
  %30 = getelementptr inbounds nuw i8, ptr %.138.i.i, i64 16
  %.not27.i.i = icmp eq ptr %30, %12
  br i1 %.not27.i.i, label %.loopexit, label %.lr.ph39.i.i, !llvm.loop !364

.loopexit:                                        ; preds = %.lr.ph.i.i, %.lr.ph39.i.i, %29, %.preheader.i.i
  %31 = getelementptr inbounds nuw i8, ptr %0, i64 240
  br label %34

_ZNK7obj_mapI9func_declP10ptr_vectorIN7datalog4ruleEEE9find_coreEPS0_.exit: ; preds = %16, %24
  %.026.i.i = phi ptr [ %.138.i.i, %24 ], [ %.036.i.i, %16 ]
  %32 = getelementptr inbounds nuw i8, ptr %.026.i.i, i64 8
  %33 = load ptr, ptr %32, align 8, !tbaa !79
  br label %34

34:                                               ; preds = %_ZNK7obj_mapI9func_declP10ptr_vectorIN7datalog4ruleEEE9find_coreEPS0_.exit, %.loopexit
  %.0 = phi ptr [ %33, %_ZNK7obj_mapI9func_declP10ptr_vectorIN7datalog4ruleEEE9find_coreEPS0_.exit ], [ %31, %.loopexit ]
  ret ptr %.0
}